target datalayout = "e-m:e-p270:32:32-p271:32:32-p272:64:64-i64:64-i128:128-f80:128-n8:16:32:64-S128"
target triple = "x86_64-pc-linux-gnu"

%struct.test_fixture = type { ptr, ptr, i32, i32, i32, ptr, i32, ptr }

@.str.14 = private unnamed_addr constant [31 x i8] c"../openssl/test/cmp_msg_test.c\00", align 1
@.str.51 = private unnamed_addr constant [25 x i8] c"valid_asn1_encoding(msg)\00", align 1
@stderr = external global ptr, align 8
@.str.62 = private unnamed_addr constant [84 x i8] c"msg = (ossl_cmp_certConf_new (fixture->cmp_ctx, 0, fixture->fail_info, ((void*)0)))\00", align 1

; Function Attrs: nounwind uwtable
define internal i32 @execute_certconf_create_test(ptr noundef %0) #0 {
  %2 = alloca ptr, align 8
  %3 = alloca ptr, align 8
  %4 = alloca i32, align 4
  store ptr %0, ptr %2, align 8, !tbaa !17
  br label %5

5:                                                ; preds = %1
  call void @llvm.lifetime.start.p0(i64 8, ptr %3) #4
  store ptr null, ptr %3, align 8, !tbaa !38
  call void @llvm.lifetime.start.p0(i64 4, ptr %4) #4
  %6 = load ptr, ptr %2, align 8, !tbaa !17
  %7 = getelementptr inbounds nuw %struct.test_fixture, ptr %6, i32 0, i32 6
  %8 = load i32, ptr %7, align 8, !tbaa !27
  %9 = icmp ne i32 %8, 0
  br i1 %9, label %10, label %30

10:                                               ; preds = %5
  %11 = load ptr, ptr %2, align 8, !tbaa !17
  %12 = getelementptr inbounds nuw %struct.test_fixture, ptr %11, i32 0, i32 1
  %13 = load ptr, ptr %12, align 8, !tbaa !28
  %14 = load ptr, ptr %2, align 8, !tbaa !17
  %15 = getelementptr inbounds nuw %struct.test_fixture, ptr %14, i32 0, i32 4
  %16 = load i32, ptr %15, align 8, !tbaa !31
  %17 = call ptr @ossl_cmp_certConf_new(ptr noundef %13, i32 noundef 0, i32 noundef %16, ptr noundef null)
  store ptr %17, ptr %3, align 8, !tbaa !38
  %18 = call i32 @test_ptr(ptr noundef @.str.14, i32 noundef 111, ptr noundef @.str.62, ptr noundef %17)
  %19 = icmp ne i32 %18, 0
  br i1 %19, label %20, label %27

20:                                               ; preds = %10
  %21 = load ptr, ptr %3, align 8, !tbaa !38
  %22 = call i32 @valid_asn1_encoding(ptr noundef %21)
  %23 = icmp ne i32 %22, 0
  %24 = zext i1 %23 to i32
  %25 = call i32 @test_true(ptr noundef @.str.14, i32 noundef 111, ptr noundef @.str.51, i32 noundef %24)
  %26 = icmp ne i32 %25, 0
  br label %27

27:                                               ; preds = %20, %10
  %28 = phi i1 [ false, %10 ], [ %26, %20 ]
  %29 = zext i1 %28 to i32
  br label %39

30:                                               ; preds = %5
  %31 = load ptr, ptr %2, align 8, !tbaa !17
  %32 = getelementptr inbounds nuw %struct.test_fixture, ptr %31, i32 0, i32 1
  %33 = load ptr, ptr %32, align 8, !tbaa !28
  %34 = load ptr, ptr %2, align 8, !tbaa !17
  %35 = getelementptr inbounds nuw %struct.test_fixture, ptr %34, i32 0, i32 4
  %36 = load i32, ptr %35, align 8, !tbaa !31
  %37 = call ptr @ossl_cmp_certConf_new(ptr noundef %33, i32 noundef 0, i32 noundef %36, ptr noundef null)
  store ptr %37, ptr %3, align 8, !tbaa !38
  %38 = call i32 @test_ptr_null(ptr noundef @.str.14, i32 noundef 111, ptr noundef @.str.62, ptr noundef %37)
  br label %39

39:                                               ; preds = %30, %27
  %40 = phi i32 [ %29, %27 ], [ %38, %30 ]
  store i32 %40, ptr %4, align 4, !tbaa !19
  %41 = load ptr, ptr %3, align 8, !tbaa !38
  call void @OSSL_CMP_MSG_free(ptr noundef %41)
  %42 = load ptr, ptr @stderr, align 8, !tbaa !39
  call void @ERR_print_errors_fp(ptr noundef %42)
  %43 = load i32, ptr %4, align 4, !tbaa !19
  call void @llvm.lifetime.end.p0(i64 4, ptr %4) #4
  call void @llvm.lifetime.end.p0(i64 8, ptr %3) #4
  br label %44

44:                                               ; preds = %39
  ret i32 %43
}