; Function Attrs: nounwind uwtable
define internal fastcc i32 @execute_certconf_create_test(ptr noundef nonnull readonly captures(none) %0) unnamed_addr #0 {
  %2 = getelementptr inbounds nuw i8, ptr %0, i64 40
  %3 = load i32, ptr %2, align 8, !tbaa !24
  %.not = icmp eq i32 %3, 0
  %4 = getelementptr inbounds nuw i8, ptr %0, i64 8
  %5 = load ptr, ptr %4, align 8, !tbaa !25
  %6 = getelementptr inbounds nuw i8, ptr %0, i64 24
  %7 = load i32, ptr %6, align 8, !tbaa !30
  %8 = tail call ptr @ossl_cmp_certConf_new(ptr noundef %5, i32 noundef 0, i32 noundef %7, ptr noundef null) #4
  br i1 %.not, label %18, label %9

9:                                                ; preds = %1
  %10 = tail call i32 @test_ptr(ptr noundef nonnull @.str.14, i32 noundef 111, ptr noundef nonnull @.str.62, ptr noundef %8) #4
  %.not7 = icmp eq i32 %10, 0
  br i1 %.not7, label %20, label %11

11:                                               ; preds = %9
  %12 = tail call i32 @valid_asn1_encoding(ptr noundef %8) #4
  %13 = icmp ne i32 %12, 0
  %14 = zext i1 %13 to i32
  %15 = tail call i32 @test_true(ptr noundef nonnull @.str.14, i32 noundef 111, ptr noundef nonnull @.str.51, i32 noundef %14) #4
  %16 = icmp ne i32 %15, 0
  %17 = zext i1 %16 to i32
  br label %20

18:                                               ; preds = %1
  %19 = tail call i32 @test_ptr_null(ptr noundef nonnull @.str.14, i32 noundef 111, ptr noundef nonnull @.str.62, ptr noundef %8) #4
  br label %20

20:                                               ; preds = %9, %11, %18
  %21 = phi i32 [ %19, %18 ], [ %17, %11 ], [ 0, %9 ]
  tail call void @OSSL_CMP_MSG_free(ptr noundef %8) #4
  %22 = load ptr, ptr @stderr, align 8, !tbaa !28
  tail call void @ERR_print_errors_fp(ptr noundef %22) #4
  ret i32 %21
}